target datalayout = "e-m:e-p270:32:32-p271:32:32-p272:64:64-i64:64-i128:128-f80:128-n8:16:32:64-S128"
target triple = "x86_64-pc-linux-gnu"

%struct._image_pos = type { float, float, float, float }
%struct._image_box = type { i32, i32, i32, i32, i32, i32, i32, i32, i32, i32, %struct._image_pos, %struct._image_pos, %struct._image_pos, ptr }
%struct.dt_images_box = type { i32, i32, i32, [20 x %struct._image_box], float, float, float, float, %struct.dt_screen_pos }
%struct.dt_screen_pos = type { %struct._image_pos, %struct._image_pos, i32 }

; Function Attrs: nounwind uwtable
define void @_compute_rel_pos(ptr noundef %0, ptr noundef %1, ptr noundef %2) #0 {
  %4 = alloca ptr, align 8
  %5 = alloca ptr, align 8
  %6 = alloca ptr, align 8
  %7 = alloca float, align 4
  %8 = alloca float, align 4
  %9 = alloca float, align 4
  %10 = alloca float, align 4
  store ptr %0, ptr %4, align 8, !tbaa !33
  store ptr %1, ptr %5, align 8, !tbaa !6
  store ptr %2, ptr %6, align 8, !tbaa !6
  call void @llvm.lifetime.start.p0(i64 4, ptr %7) #5
  %11 = load ptr, ptr %4, align 8, !tbaa !33
  %12 = getelementptr inbounds nuw %struct.dt_images_box, ptr %11, i32 0, i32 8
  %13 = getelementptr inbounds nuw %struct.dt_screen_pos, ptr %12, i32 0, i32 0
  %14 = getelementptr inbounds nuw %struct._image_pos, ptr %13, i32 0, i32 0
  %15 = load float, ptr %14, align 8, !tbaa !50
  store float %15, ptr %7, align 4, !tbaa !45
  call void @llvm.lifetime.start.p0(i64 4, ptr %8) #5
  %16 = load ptr, ptr %4, align 8, !tbaa !33
  %17 = getelementptr inbounds nuw %struct.dt_images_box, ptr %16, i32 0, i32 8
  %18 = getelementptr inbounds nuw %struct.dt_screen_pos, ptr %17, i32 0, i32 0
  %19 = getelementptr inbounds nuw %struct._image_pos, ptr %18, i32 0, i32 1
  %20 = load float, ptr %19, align 4, !tbaa !51
  store float %20, ptr %8, align 4, !tbaa !45
  call void @llvm.lifetime.start.p0(i64 4, ptr %9) #5
  %21 = load ptr, ptr %4, align 8, !tbaa !33
  %22 = getelementptr inbounds nuw %struct.dt_images_box, ptr %21, i32 0, i32 8
  %23 = getelementptr inbounds nuw %struct.dt_screen_pos, ptr %22, i32 0, i32 0
  %24 = getelementptr inbounds nuw %struct._image_pos, ptr %23, i32 0, i32 2
  %25 = load float, ptr %24, align 8, !tbaa !52
  store float %25, ptr %9, align 4, !tbaa !45
  call void @llvm.lifetime.start.p0(i64 4, ptr %10) #5
  %26 = load ptr, ptr %4, align 8, !tbaa !33
  %27 = getelementptr inbounds nuw %struct.dt_images_box, ptr %26, i32 0, i32 8
  %28 = getelementptr inbounds nuw %struct.dt_screen_pos, ptr %27, i32 0, i32 0
  %29 = getelementptr inbounds nuw %struct._image_pos, ptr %28, i32 0, i32 3
  %30 = load float, ptr %29, align 4, !tbaa !53
  store float %30, ptr %10, align 4, !tbaa !45
  %31 = load ptr, ptr %5, align 8, !tbaa !6
  %32 = getelementptr inbounds nuw %struct._image_pos, ptr %31, i32 0, i32 0
  %33 = load float, ptr %32, align 4, !tbaa !16
  %34 = load float, ptr %7, align 4, !tbaa !45
  %35 = fsub reassoc nsz arcp contract afn float %33, %34
  %36 = load float, ptr %9, align 4, !tbaa !45
  %37 = fdiv reassoc nsz arcp contract afn float %35, %36
  %38 = load ptr, ptr %6, align 8, !tbaa !6
  %39 = getelementptr inbounds nuw %struct._image_pos, ptr %38, i32 0, i32 0
  store float %37, ptr %39, align 4, !tbaa !16
  %40 = load ptr, ptr %5, align 8, !tbaa !6
  %41 = getelementptr inbounds nuw %struct._image_pos, ptr %40, i32 0, i32 1
  %42 = load float, ptr %41, align 4, !tbaa !15
  %43 = load float, ptr %8, align 4, !tbaa !45
  %44 = fsub reassoc nsz arcp contract afn float %42, %43
  %45 = load float, ptr %10, align 4, !tbaa !45
  %46 = fdiv reassoc nsz arcp contract afn float %44, %45
  %47 = load ptr, ptr %6, align 8, !tbaa !6
  %48 = getelementptr inbounds nuw %struct._image_pos, ptr %47, i32 0, i32 1
  store float %46, ptr %48, align 4, !tbaa !15
  %49 = load ptr, ptr %5, align 8, !tbaa !6
  %50 = getelementptr inbounds nuw %struct._image_pos, ptr %49, i32 0, i32 2
  %51 = load float, ptr %50, align 4, !tbaa !14
  %52 = load float, ptr %9, align 4, !tbaa !45
  %53 = fdiv reassoc nsz arcp contract afn float %51, %52
  %54 = load ptr, ptr %6, align 8, !tbaa !6
  %55 = getelementptr inbounds nuw %struct._image_pos, ptr %54, i32 0, i32 2
  store float %53, ptr %55, align 4, !tbaa !14
  %56 = load ptr, ptr %5, align 8, !tbaa !6
  %57 = getelementptr inbounds nuw %struct._image_pos, ptr %56, i32 0, i32 3
  %58 = load float, ptr %57, align 4, !tbaa !11
  %59 = load float, ptr %10, align 4, !tbaa !45
  %60 = fdiv reassoc nsz arcp contract afn float %58, %59
  %61 = load ptr, ptr %6, align 8, !tbaa !6
  %62 = getelementptr inbounds nuw %struct._image_pos, ptr %61, i32 0, i32 3
  store float %60, ptr %62, align 4, !tbaa !11
  call void @llvm.lifetime.end.p0(i64 4, ptr %10) #5
  call void @llvm.lifetime.end.p0(i64 4, ptr %9) #5
  call void @llvm.lifetime.end.p0(i64 4, ptr %8) #5
  call void @llvm.lifetime.end.p0(i64 4, ptr %7) #5
  ret void
}