; Function Attrs: mustprogress nofree norecurse nosync nounwind willreturn memory(argmem: readwrite) uwtable
define void @_compute_rel_pos(ptr noundef readonly captures(none) %0, ptr noundef readonly captures(none) %1, ptr noundef writeonly captures(none) initializes((0, 16)) %2) local_unnamed_addr #5 {
  %4 = getelementptr inbounds nuw i8, ptr %0, i64 1952
  %5 = load float, ptr %4, align 8, !tbaa !24
  %6 = getelementptr inbounds nuw i8, ptr %0, i64 1956
  %7 = load float, ptr %6, align 4, !tbaa !25
  %8 = getelementptr inbounds nuw i8, ptr %0, i64 1960
  %9 = load float, ptr %8, align 8, !tbaa !26
  %10 = getelementptr inbounds nuw i8, ptr %0, i64 1964
  %11 = load float, ptr %10, align 4, !tbaa !27
  %12 = load float, ptr %1, align 4, !tbaa !28
  %13 = fsub reassoc nsz arcp contract afn float %12, %5
  %14 = fdiv reassoc nsz arcp contract afn float %13, %9
  store float %14, ptr %2, align 4, !tbaa !28
  %15 = getelementptr inbounds nuw i8, ptr %1, i64 4
  %16 = load float, ptr %15, align 4, !tbaa !29
  %17 = fsub reassoc nsz arcp contract afn float %16, %7
  %18 = fdiv reassoc nsz arcp contract afn float %17, %11
  %19 = getelementptr inbounds nuw i8, ptr %2, i64 4
  store float %18, ptr %19, align 4, !tbaa !29
  %20 = getelementptr inbounds nuw i8, ptr %1, i64 8
  %21 = load float, ptr %20, align 4, !tbaa !30
  %22 = fdiv reassoc nsz arcp contract afn float %21, %9
  %23 = getelementptr inbounds nuw i8, ptr %2, i64 8
  store float %22, ptr %23, align 4, !tbaa !30
  %24 = getelementptr inbounds nuw i8, ptr %1, i64 12
  %25 = load float, ptr %24, align 4, !tbaa !31
  %26 = fdiv reassoc nsz arcp contract afn float %25, %11
  %27 = getelementptr inbounds nuw i8, ptr %2, i64 12
  store float %26, ptr %27, align 4, !tbaa !31
  ret void
}